target datalayout = "e-m:e-p270:32:32-p271:32:32-p272:64:64-i64:64-i128:128-f80:128-n8:16:32:64-S128"
target triple = "x86_64-pc-linux-gnu"

%struct.evp_pkey_st = type { i32, i32, %union.anon.1, ptr }
%union.anon.1 = type { ptr }
%struct.cert_st = type { ptr, ptr, ptr, ptr, i32, i32, ptr, ptr, ptr, i64, ptr, i64, ptr, ptr, ptr }

@.str = private unnamed_addr constant [117 x i8] c"generated/home/dtcxzyw/WorkSpace/Projects/compilers/llvm-opt-benchmark/bench/libquic/libquic/boringssl/ssl/ssl_rsa.c\00", align 1

; Function Attrs: nounwind uwtable
define internal i32 @is_key_type_supported(i32 noundef %0) #0 {
  %2 = alloca i32, align 4
  store i32 %0, ptr %2, align 4, !tbaa !55
  %3 = load i32, ptr %2, align 4, !tbaa !55
  %4 = icmp eq i32 %3, 6
  br i1 %4, label %8, label %5

5:                                                ; preds = %1
  %6 = load i32, ptr %2, align 4, !tbaa !55
  %7 = icmp eq i32 %6, 408
  br label %8

8:                                                ; preds = %5, %1
  %9 = phi i1 [ true, %1 ], [ %7, %5 ]
  %10 = zext i1 %9 to i32
  ret i32 %10
}

; Function Attrs: nounwind uwtable
define internal i32 @ssl_set_cert(ptr noundef %0, ptr noundef %1) #0 {
  %3 = alloca i32, align 4
  %4 = alloca ptr, align 8
  %5 = alloca ptr, align 8
  %6 = alloca ptr, align 8
  %7 = alloca i32, align 4
  store ptr %0, ptr %4, align 8, !tbaa !39
  store ptr %1, ptr %5, align 8, !tbaa !11
  call void @llvm.lifetime.start.p0(i64 8, ptr %6) #4
  %8 = load ptr, ptr %5, align 8, !tbaa !11
  %9 = call ptr @X509_get_pubkey(ptr noundef %8)
  store ptr %9, ptr %6, align 8, !tbaa !40
  %10 = load ptr, ptr %6, align 8, !tbaa !40
  %11 = icmp eq ptr %10, null
  br i1 %11, label %12, label %13

12:                                               ; preds = %2
  call void @ERR_put_error(i32 noundef 16, i32 noundef 0, i32 noundef 248, ptr noundef @.str, i32 noundef 206)
  store i32 0, ptr %3, align 4
  store i32 1, ptr %7, align 4
  br label %55

13:                                               ; preds = %2
  %14 = load ptr, ptr %6, align 8, !tbaa !40
  %15 = getelementptr inbounds nuw %struct.evp_pkey_st, ptr %14, i32 0, i32 1
  %16 = load i32, ptr %15, align 4, !tbaa !41
  %17 = call i32 @is_key_type_supported(i32 noundef %16)
  %18 = icmp ne i32 %17, 0
  br i1 %18, label %21, label %19

19:                                               ; preds = %13
  call void @ERR_put_error(i32 noundef 16, i32 noundef 0, i32 noundef 228, ptr noundef @.str, i32 noundef 211)
  %20 = load ptr, ptr %6, align 8, !tbaa !40
  call void @EVP_PKEY_free(ptr noundef %20)
  store i32 0, ptr %3, align 4
  store i32 1, ptr %7, align 4
  br label %55

21:                                               ; preds = %13
  %22 = load ptr, ptr %4, align 8, !tbaa !39
  %23 = getelementptr inbounds nuw %struct.cert_st, ptr %22, i32 0, i32 1
  %24 = load ptr, ptr %23, align 8, !tbaa !44
  %25 = icmp ne ptr %24, null
  br i1 %25, label %26, label %46

26:                                               ; preds = %21
  %27 = load ptr, ptr %4, align 8, !tbaa !39
  %28 = getelementptr inbounds nuw %struct.cert_st, ptr %27, i32 0, i32 1
  %29 = load ptr, ptr %28, align 8, !tbaa !44
  %30 = call i32 @EVP_PKEY_is_opaque(ptr noundef %29)
  %31 = icmp ne i32 %30, 0
  br i1 %31, label %45, label %32

32:                                               ; preds = %26
  %33 = load ptr, ptr %5, align 8, !tbaa !11
  %34 = load ptr, ptr %4, align 8, !tbaa !39
  %35 = getelementptr inbounds nuw %struct.cert_st, ptr %34, i32 0, i32 1
  %36 = load ptr, ptr %35, align 8, !tbaa !44
  %37 = call i32 @X509_check_private_key(ptr noundef %33, ptr noundef %36)
  %38 = icmp ne i32 %37, 0
  br i1 %38, label %45, label %39

39:                                               ; preds = %32
  %40 = load ptr, ptr %4, align 8, !tbaa !39
  %41 = getelementptr inbounds nuw %struct.cert_st, ptr %40, i32 0, i32 1
  %42 = load ptr, ptr %41, align 8, !tbaa !44
  call void @EVP_PKEY_free(ptr noundef %42)
  %43 = load ptr, ptr %4, align 8, !tbaa !39
  %44 = getelementptr inbounds nuw %struct.cert_st, ptr %43, i32 0, i32 1
  store ptr null, ptr %44, align 8, !tbaa !44
  call void @ERR_clear_error()
  br label %45

45:                                               ; preds = %39, %32, %26
  br label %46

46:                                               ; preds = %45, %21
  %47 = load ptr, ptr %6, align 8, !tbaa !40
  call void @EVP_PKEY_free(ptr noundef %47)
  %48 = load ptr, ptr %4, align 8, !tbaa !39
  %49 = getelementptr inbounds nuw %struct.cert_st, ptr %48, i32 0, i32 0
  %50 = load ptr, ptr %49, align 8, !tbaa !52
  call void @X509_free(ptr noundef %50)
  %51 = load ptr, ptr %5, align 8, !tbaa !11
  %52 = call ptr @X509_up_ref(ptr noundef %51)
  %53 = load ptr, ptr %4, align 8, !tbaa !39
  %54 = getelementptr inbounds nuw %struct.cert_st, ptr %53, i32 0, i32 0
  store ptr %52, ptr %54, align 8, !tbaa !52
  store i32 1, ptr %3, align 4
  store i32 1, ptr %7, align 4
  br label %55

55:                                               ; preds = %46, %19, %12
  call void @llvm.lifetime.end.p0(i64 8, ptr %6) #4
  %56 = load i32, ptr %3, align 4
  ret i32 %56
}