; Function Attrs: nounwind uwtable
define internal fastcc range(i32 0, 2) i32 @ssl_set_cert(ptr noundef captures(none) %0, ptr noundef nonnull %1) unnamed_addr #0 {
  %3 = tail call ptr @X509_get_pubkey(ptr noundef nonnull %1) #6
  %4 = icmp eq ptr %3, null
  br i1 %4, label %5, label %6

5:                                                ; preds = %2
  tail call void @ERR_put_error(i32 noundef 16, i32 noundef 0, i32 noundef 248, ptr noundef nonnull @.str, i32 noundef 206) #6
  br label %23

6:                                                ; preds = %2
  %7 = getelementptr inbounds nuw i8, ptr %3, i64 4
  %8 = load i32, ptr %7, align 4, !tbaa !35
  switch i32 %8, label %9 [
    i32 408, label %10
    i32 6, label %10
  ]

9:                                                ; preds = %6
  tail call void @ERR_put_error(i32 noundef 16, i32 noundef 0, i32 noundef 228, ptr noundef nonnull @.str, i32 noundef 211) #6
  tail call void @EVP_PKEY_free(ptr noundef nonnull %3) #6
  br label %23

10:                                               ; preds = %6, %6
  %11 = getelementptr inbounds nuw i8, ptr %0, i64 8
  %12 = load ptr, ptr %11, align 8, !tbaa !38
  %.not16 = icmp eq ptr %12, null
  br i1 %.not16, label %20, label %13

13:                                               ; preds = %10
  %14 = tail call i32 @EVP_PKEY_is_opaque(ptr noundef nonnull %12) #6
  %.not17 = icmp eq i32 %14, 0
  br i1 %.not17, label %15, label %20

15:                                               ; preds = %13
  %16 = load ptr, ptr %11, align 8, !tbaa !38
  %17 = tail call i32 @X509_check_private_key(ptr noundef nonnull %1, ptr noundef %16) #6
  %.not18 = icmp eq i32 %17, 0
  br i1 %.not18, label %18, label %20

18:                                               ; preds = %15
  %19 = load ptr, ptr %11, align 8, !tbaa !38
  tail call void @EVP_PKEY_free(ptr noundef %19) #6
  store ptr null, ptr %11, align 8, !tbaa !38
  tail call void @ERR_clear_error() #6
  br label %20

20:                                               ; preds = %13, %15, %18, %10
  tail call void @EVP_PKEY_free(ptr noundef nonnull %3) #6
  %21 = load ptr, ptr %0, align 8, !tbaa !47
  tail call void @X509_free(ptr noundef %21) #6
  %22 = tail call ptr @X509_up_ref(ptr noundef nonnull %1) #6
  store ptr %22, ptr %0, align 8, !tbaa !47
  br label %23

23:                                               ; preds = %20, %9, %5
  %.0 = phi i32 [ 0, %5 ], [ 1, %20 ], [ 0, %9 ]
  ret i32 %.0
}